target datalayout = "e-m:e-p270:32:32-p271:32:32-p272:64:64-i64:64-i128:128-f80:128-n8:16:32:64-S128"
target triple = "x86_64-pc-linux-gnu"

%struct.AVFilterContext = type { ptr, ptr, ptr, ptr, ptr, i32, ptr, ptr, i32, ptr, ptr, i32, i32, ptr, ptr, ptr, ptr, i32, ptr, i32, i32 }
%struct.MaskedMinMaxContext = type { ptr, i32, i32, [4 x i32], [4 x i32], [4 x i32], i32, i32, %struct.FFFrameSync, ptr }
%struct.FFFrameSync = type { ptr, ptr, i32, %struct.AVRational, i64, ptr, ptr, i32, i32, i8, i8, ptr, i32, i32, i32, i32 }
%struct.AVRational = type { i32, i32 }
%struct.AVFilterLink = type { ptr, ptr, ptr, ptr, i32, i32, i32, i32, %struct.AVRational, i32, i32, i32, %struct.AVChannelLayout, %struct.AVRational, ptr, i32, %struct.AVFilterFormatsConfig, %struct.AVFilterFormatsConfig }
%struct.AVChannelLayout = type { i32, i32, %union.anon.1, ptr }
%union.anon.1 = type { i64 }
%struct.AVFilterFormatsConfig = type { ptr, ptr, ptr, ptr, ptr }
%struct.AVPixFmtDescriptor = type { ptr, i8, i8, i8, i64, [4 x %struct.AVComponentDescriptor], ptr }
%struct.AVComponentDescriptor = type { i32, i32, i32, i32, i32 }

; Function Attrs: nounwind uwtable
define internal i32 @config_input(ptr noundef %0) #2 {
  %2 = alloca i32, align 4
  %3 = alloca ptr, align 8
  %4 = alloca ptr, align 8
  %5 = alloca ptr, align 8
  %6 = alloca ptr, align 8
  %7 = alloca i32, align 4
  %8 = alloca i32, align 4
  %9 = alloca i32, align 4
  %10 = alloca i32, align 4
  store ptr %0, ptr %3, align 8, !tbaa !30
  call void @llvm.lifetime.start.p0(i64 8, ptr %4) #9
  %11 = load ptr, ptr %3, align 8, !tbaa !30
  %12 = getelementptr inbounds nuw %struct.AVFilterLink, ptr %11, i32 0, i32 2
  %13 = load ptr, ptr %12, align 8, !tbaa !32
  store ptr %13, ptr %4, align 8, !tbaa !4
  call void @llvm.lifetime.start.p0(i64 8, ptr %5) #9
  %14 = load ptr, ptr %4, align 8, !tbaa !4
  %15 = getelementptr inbounds nuw %struct.AVFilterContext, ptr %14, i32 0, i32 9
  %16 = load ptr, ptr %15, align 8, !tbaa !9
  store ptr %16, ptr %5, align 8, !tbaa !22
  call void @llvm.lifetime.start.p0(i64 8, ptr %6) #9
  %17 = load ptr, ptr %3, align 8, !tbaa !30
  %18 = getelementptr inbounds nuw %struct.AVFilterLink, ptr %17, i32 0, i32 5
  %19 = load i32, ptr %18, align 4, !tbaa !39
  %20 = call ptr @av_pix_fmt_desc_get(i32 noundef %19)
  store ptr %20, ptr %6, align 8, !tbaa !40
  call void @llvm.lifetime.start.p0(i64 4, ptr %7) #9
  call void @llvm.lifetime.start.p0(i64 4, ptr %8) #9
  call void @llvm.lifetime.start.p0(i64 4, ptr %9) #9
  %21 = load ptr, ptr %3, align 8, !tbaa !30
  %22 = getelementptr inbounds nuw %struct.AVFilterLink, ptr %21, i32 0, i32 5
  %23 = load i32, ptr %22, align 4, !tbaa !39
  %24 = call i32 @av_pix_fmt_count_planes(i32 noundef %23)
  %25 = load ptr, ptr %5, align 8, !tbaa !22
  %26 = getelementptr inbounds nuw %struct.MaskedMinMaxContext, ptr %25, i32 0, i32 6
  store i32 %24, ptr %26, align 8, !tbaa !42
  %27 = load ptr, ptr %5, align 8, !tbaa !22
  %28 = getelementptr inbounds nuw %struct.MaskedMinMaxContext, ptr %27, i32 0, i32 3
  %29 = getelementptr inbounds [4 x i32], ptr %28, i64 0, i64 0
  %30 = load ptr, ptr %3, align 8, !tbaa !30
  %31 = getelementptr inbounds nuw %struct.AVFilterLink, ptr %30, i32 0, i32 5
  %32 = load i32, ptr %31, align 4, !tbaa !39
  %33 = load ptr, ptr %3, align 8, !tbaa !30
  %34 = getelementptr inbounds nuw %struct.AVFilterLink, ptr %33, i32 0, i32 6
  %35 = load i32, ptr %34, align 8, !tbaa !43
  %36 = call i32 @av_image_fill_linesizes(ptr noundef %29, i32 noundef %32, i32 noundef %35)
  store i32 %36, ptr %9, align 4, !tbaa !44
  %37 = icmp slt i32 %36, 0
  br i1 %37, label %38, label %40

38:                                               ; preds = %1
  %39 = load i32, ptr %9, align 4, !tbaa !44
  store i32 %39, ptr %2, align 4
  store i32 1, ptr %10, align 4
  br label %169

40:                                               ; preds = %1
  %41 = load ptr, ptr %6, align 8, !tbaa !40
  %42 = getelementptr inbounds nuw %struct.AVPixFmtDescriptor, ptr %41, i32 0, i32 2
  %43 = load i8, ptr %42, align 1, !tbaa !45
  %44 = zext i8 %43 to i32
  store i32 %44, ptr %8, align 4, !tbaa !44
  %45 = load ptr, ptr %6, align 8, !tbaa !40
  %46 = getelementptr inbounds nuw %struct.AVPixFmtDescriptor, ptr %45, i32 0, i32 3
  %47 = load i8, ptr %46, align 2, !tbaa !47
  %48 = zext i8 %47 to i32
  store i32 %48, ptr %7, align 4, !tbaa !44
  %49 = load i32, ptr %7, align 4, !tbaa !44
  %50 = call i1 @llvm.is.constant.i32(i32 %49)
  br i1 %50, label %59, label %51

51:                                               ; preds = %40
  %52 = load ptr, ptr %3, align 8, !tbaa !30
  %53 = getelementptr inbounds nuw %struct.AVFilterLink, ptr %52, i32 0, i32 7
  %54 = load i32, ptr %53, align 4, !tbaa !48
  %55 = sub nsw i32 0, %54
  %56 = load i32, ptr %7, align 4, !tbaa !44
  %57 = ashr i32 %55, %56
  %58 = sub nsw i32 0, %57
  br label %69

59:                                               ; preds = %40
  %60 = load ptr, ptr %3, align 8, !tbaa !30
  %61 = getelementptr inbounds nuw %struct.AVFilterLink, ptr %60, i32 0, i32 7
  %62 = load i32, ptr %61, align 4, !tbaa !48
  %63 = load i32, ptr %7, align 4, !tbaa !44
  %64 = shl i32 1, %63
  %65 = add nsw i32 %62, %64
  %66 = sub nsw i32 %65, 1
  %67 = load i32, ptr %7, align 4, !tbaa !44
  %68 = ashr i32 %66, %67
  br label %69

69:                                               ; preds = %59, %51
  %70 = phi i32 [ %58, %51 ], [ %68, %59 ]
  %71 = load ptr, ptr %5, align 8, !tbaa !22
  %72 = getelementptr inbounds nuw %struct.MaskedMinMaxContext, ptr %71, i32 0, i32 5
  %73 = getelementptr inbounds [4 x i32], ptr %72, i64 0, i64 2
  store i32 %70, ptr %73, align 8, !tbaa !44
  %74 = load ptr, ptr %5, align 8, !tbaa !22
  %75 = getelementptr inbounds nuw %struct.MaskedMinMaxContext, ptr %74, i32 0, i32 5
  %76 = getelementptr inbounds [4 x i32], ptr %75, i64 0, i64 1
  store i32 %70, ptr %76, align 4, !tbaa !44
  %77 = load ptr, ptr %3, align 8, !tbaa !30
  %78 = getelementptr inbounds nuw %struct.AVFilterLink, ptr %77, i32 0, i32 7
  %79 = load i32, ptr %78, align 4, !tbaa !48
  %80 = load ptr, ptr %5, align 8, !tbaa !22
  %81 = getelementptr inbounds nuw %struct.MaskedMinMaxContext, ptr %80, i32 0, i32 5
  %82 = getelementptr inbounds [4 x i32], ptr %81, i64 0, i64 3
  store i32 %79, ptr %82, align 4, !tbaa !44
  %83 = load ptr, ptr %5, align 8, !tbaa !22
  %84 = getelementptr inbounds nuw %struct.MaskedMinMaxContext, ptr %83, i32 0, i32 5
  %85 = getelementptr inbounds [4 x i32], ptr %84, i64 0, i64 0
  store i32 %79, ptr %85, align 8, !tbaa !44
  %86 = load i32, ptr %8, align 4, !tbaa !44
  %87 = call i1 @llvm.is.constant.i32(i32 %86)
  br i1 %87, label %96, label %88

88:                                               ; preds = %69
  %89 = load ptr, ptr %3, align 8, !tbaa !30
  %90 = getelementptr inbounds nuw %struct.AVFilterLink, ptr %89, i32 0, i32 6
  %91 = load i32, ptr %90, align 8, !tbaa !43
  %92 = sub nsw i32 0, %91
  %93 = load i32, ptr %8, align 4, !tbaa !44
  %94 = ashr i32 %92, %93
  %95 = sub nsw i32 0, %94
  br label %106

96:                                               ; preds = %69
  %97 = load ptr, ptr %3, align 8, !tbaa !30
  %98 = getelementptr inbounds nuw %struct.AVFilterLink, ptr %97, i32 0, i32 6
  %99 = load i32, ptr %98, align 8, !tbaa !43
  %100 = load i32, ptr %8, align 4, !tbaa !44
  %101 = shl i32 1, %100
  %102 = add nsw i32 %99, %101
  %103 = sub nsw i32 %102, 1
  %104 = load i32, ptr %8, align 4, !tbaa !44
  %105 = ashr i32 %103, %104
  br label %106

106:                                              ; preds = %96, %88
  %107 = phi i32 [ %95, %88 ], [ %105, %96 ]
  %108 = load ptr, ptr %5, align 8, !tbaa !22
  %109 = getelementptr inbounds nuw %struct.MaskedMinMaxContext, ptr %108, i32 0, i32 4
  %110 = getelementptr inbounds [4 x i32], ptr %109, i64 0, i64 2
  store i32 %107, ptr %110, align 8, !tbaa !44
  %111 = load ptr, ptr %5, align 8, !tbaa !22
  %112 = getelementptr inbounds nuw %struct.MaskedMinMaxContext, ptr %111, i32 0, i32 4
  %113 = getelementptr inbounds [4 x i32], ptr %112, i64 0, i64 1
  store i32 %107, ptr %113, align 4, !tbaa !44
  %114 = load ptr, ptr %3, align 8, !tbaa !30
  %115 = getelementptr inbounds nuw %struct.AVFilterLink, ptr %114, i32 0, i32 6
  %116 = load i32, ptr %115, align 8, !tbaa !43
  %117 = load ptr, ptr %5, align 8, !tbaa !22
  %118 = getelementptr inbounds nuw %struct.MaskedMinMaxContext, ptr %117, i32 0, i32 4
  %119 = getelementptr inbounds [4 x i32], ptr %118, i64 0, i64 3
  store i32 %116, ptr %119, align 4, !tbaa !44
  %120 = load ptr, ptr %5, align 8, !tbaa !22
  %121 = getelementptr inbounds nuw %struct.MaskedMinMaxContext, ptr %120, i32 0, i32 4
  %122 = getelementptr inbounds [4 x i32], ptr %121, i64 0, i64 0
  store i32 %116, ptr %122, align 8, !tbaa !44
  %123 = load ptr, ptr %6, align 8, !tbaa !40
  %124 = getelementptr inbounds nuw %struct.AVPixFmtDescriptor, ptr %123, i32 0, i32 5
  %125 = getelementptr inbounds [4 x %struct.AVComponentDescriptor], ptr %124, i64 0, i64 0
  %126 = getelementptr inbounds nuw %struct.AVComponentDescriptor, ptr %125, i32 0, i32 4
  %127 = load i32, ptr %126, align 8, !tbaa !49
  %128 = load ptr, ptr %5, align 8, !tbaa !22
  %129 = getelementptr inbounds nuw %struct.MaskedMinMaxContext, ptr %128, i32 0, i32 7
  store i32 %127, ptr %129, align 4, !tbaa !51
  %130 = load ptr, ptr %6, align 8, !tbaa !40
  %131 = getelementptr inbounds nuw %struct.AVPixFmtDescriptor, ptr %130, i32 0, i32 5
  %132 = getelementptr inbounds [4 x %struct.AVComponentDescriptor], ptr %131, i64 0, i64 0
  %133 = getelementptr inbounds nuw %struct.AVComponentDescriptor, ptr %132, i32 0, i32 4
  %134 = load i32, ptr %133, align 8, !tbaa !49
  %135 = icmp eq i32 %134, 8
  br i1 %135, label %136, label %144

136:                                              ; preds = %106
  %137 = load ptr, ptr %5, align 8, !tbaa !22
  %138 = getelementptr inbounds nuw %struct.MaskedMinMaxContext, ptr %137, i32 0, i32 2
  %139 = load i32, ptr %138, align 4, !tbaa !24
  %140 = icmp ne i32 %139, 0
  %141 = select i1 %140, ptr @maskedmin8, ptr @maskedmax8
  %142 = load ptr, ptr %5, align 8, !tbaa !22
  %143 = getelementptr inbounds nuw %struct.MaskedMinMaxContext, ptr %142, i32 0, i32 9
  store ptr %141, ptr %143, align 8, !tbaa !52
  br label %168

144:                                              ; preds = %106
  %145 = load ptr, ptr %6, align 8, !tbaa !40
  %146 = getelementptr inbounds nuw %struct.AVPixFmtDescriptor, ptr %145, i32 0, i32 5
  %147 = getelementptr inbounds [4 x %struct.AVComponentDescriptor], ptr %146, i64 0, i64 0
  %148 = getelementptr inbounds nuw %struct.AVComponentDescriptor, ptr %147, i32 0, i32 4
  %149 = load i32, ptr %148, align 8, !tbaa !49
  %150 = icmp sle i32 %149, 16
  br i1 %150, label %151, label %159

151:                                              ; preds = %144
  %152 = load ptr, ptr %5, align 8, !tbaa !22
  %153 = getelementptr inbounds nuw %struct.MaskedMinMaxContext, ptr %152, i32 0, i32 2
  %154 = load i32, ptr %153, align 4, !tbaa !24
  %155 = icmp ne i32 %154, 0
  %156 = select i1 %155, ptr @maskedmin16, ptr @maskedmax16
  %157 = load ptr, ptr %5, align 8, !tbaa !22
  %158 = getelementptr inbounds nuw %struct.MaskedMinMaxContext, ptr %157, i32 0, i32 9
  store ptr %156, ptr %158, align 8, !tbaa !52
  br label %167

159:                                              ; preds = %144
  %160 = load ptr, ptr %5, align 8, !tbaa !22
  %161 = getelementptr inbounds nuw %struct.MaskedMinMaxContext, ptr %160, i32 0, i32 2
  %162 = load i32, ptr %161, align 4, !tbaa !24
  %163 = icmp ne i32 %162, 0
  %164 = select i1 %163, ptr @maskedmin32, ptr @maskedmax32
  %165 = load ptr, ptr %5, align 8, !tbaa !22
  %166 = getelementptr inbounds nuw %struct.MaskedMinMaxContext, ptr %165, i32 0, i32 9
  store ptr %164, ptr %166, align 8, !tbaa !52
  br label %167

167:                                              ; preds = %159, %151
  br label %168

168:                                              ; preds = %167, %136
  store i32 0, ptr %2, align 4
  store i32 1, ptr %10, align 4
  br label %169

169:                                              ; preds = %168, %38
  call void @llvm.lifetime.end.p0(i64 4, ptr %9) #9
  call void @llvm.lifetime.end.p0(i64 4, ptr %8) #9
  call void @llvm.lifetime.end.p0(i64 4, ptr %7) #9
  call void @llvm.lifetime.end.p0(i64 8, ptr %6) #9
  call void @llvm.lifetime.end.p0(i64 8, ptr %5) #9
  call void @llvm.lifetime.end.p0(i64 8, ptr %4) #9
  %170 = load i32, ptr %2, align 4
  ret i32 %170
}