; Function Attrs: nounwind uwtable
define internal range(i32 -2147483648, 1) i32 @config_input(ptr noundef readonly captures(none) %0) #3 {
  %2 = getelementptr inbounds nuw i8, ptr %0, i64 16
  %3 = load ptr, ptr %2, align 8, !tbaa !27
  %4 = getelementptr inbounds nuw i8, ptr %3, i64 72
  %5 = load ptr, ptr %4, align 8, !tbaa !4
  %6 = getelementptr inbounds nuw i8, ptr %0, i64 36
  %7 = load i32, ptr %6, align 4, !tbaa !34
  %8 = tail call ptr @av_pix_fmt_desc_get(i32 noundef %7) #9
  %9 = load i32, ptr %6, align 4, !tbaa !34
  %10 = tail call i32 @av_pix_fmt_count_planes(i32 noundef %9) #9
  %11 = getelementptr inbounds nuw i8, ptr %5, i64 64
  store i32 %10, ptr %11, align 8, !tbaa !35
  %12 = getelementptr inbounds nuw i8, ptr %5, i64 16
  %13 = load i32, ptr %6, align 4, !tbaa !34
  %14 = getelementptr inbounds nuw i8, ptr %0, i64 40
  %15 = load i32, ptr %14, align 8, !tbaa !36
  %16 = tail call i32 @av_image_fill_linesizes(ptr noundef nonnull %12, i32 noundef %13, i32 noundef %15) #9
  %17 = icmp slt i32 %16, 0
  br i1 %17, label %62, label %18

18:                                               ; preds = %1
  %19 = getelementptr inbounds nuw i8, ptr %8, i64 9
  %20 = load i8, ptr %19, align 1, !tbaa !37
  %21 = zext nneg i8 %20 to i32
  %22 = getelementptr inbounds nuw i8, ptr %0, i64 44
  %23 = load i32, ptr %22, align 4, !tbaa !39
  %24 = sub nsw i32 0, %23
  %25 = getelementptr inbounds nuw i8, ptr %8, i64 10
  %26 = load i8, ptr %25, align 2, !tbaa !40
  %27 = zext nneg i8 %26 to i32
  %28 = ashr i32 %24, %27
  %29 = sub nsw i32 0, %28
  %30 = getelementptr inbounds nuw i8, ptr %5, i64 48
  %31 = getelementptr inbounds nuw i8, ptr %5, i64 56
  store i32 %29, ptr %31, align 8, !tbaa !41
  %32 = getelementptr inbounds nuw i8, ptr %5, i64 52
  store i32 %29, ptr %32, align 4, !tbaa !41
  %33 = getelementptr inbounds nuw i8, ptr %0, i64 44
  %34 = load i32, ptr %33, align 4, !tbaa !39
  %35 = getelementptr inbounds nuw i8, ptr %5, i64 60
  store i32 %34, ptr %35, align 4, !tbaa !41
  store i32 %34, ptr %30, align 8, !tbaa !41
  %36 = load i32, ptr %14, align 8, !tbaa !36
  %37 = sub nsw i32 0, %36
  %38 = ashr i32 %37, %21
  %39 = sub nsw i32 0, %38
  %40 = getelementptr inbounds nuw i8, ptr %5, i64 32
  %41 = getelementptr inbounds nuw i8, ptr %5, i64 40
  store i32 %39, ptr %41, align 8, !tbaa !41
  %42 = getelementptr inbounds nuw i8, ptr %5, i64 36
  store i32 %39, ptr %42, align 4, !tbaa !41
  %43 = load i32, ptr %14, align 8, !tbaa !36
  %44 = getelementptr inbounds nuw i8, ptr %5, i64 44
  store i32 %43, ptr %44, align 4, !tbaa !41
  store i32 %43, ptr %40, align 8, !tbaa !41
  %45 = getelementptr inbounds nuw i8, ptr %8, i64 40
  %46 = load i32, ptr %45, align 8, !tbaa !42
  %47 = getelementptr inbounds nuw i8, ptr %5, i64 68
  store i32 %46, ptr %47, align 4, !tbaa !44
  %48 = icmp eq i32 %46, 8
  %49 = getelementptr inbounds nuw i8, ptr %5, i64 168
  br i1 %48, label %50, label %54

50:                                               ; preds = %18
  %51 = getelementptr inbounds nuw i8, ptr %5, i64 12
  %52 = load i32, ptr %51, align 4, !tbaa !20
  %.not46 = icmp eq i32 %52, 0
  %53 = select i1 %.not46, ptr @maskedmax8, ptr @maskedmin8
  br label %.sink.split

54:                                               ; preds = %18
  %55 = icmp slt i32 %46, 17
  %56 = getelementptr inbounds nuw i8, ptr %5, i64 12
  %57 = load i32, ptr %56, align 4, !tbaa !20
  %.not45 = icmp eq i32 %57, 0
  br i1 %55, label %58, label %60

58:                                               ; preds = %54
  %59 = select i1 %.not45, ptr @maskedmax16, ptr @maskedmin16
  br label %.sink.split

60:                                               ; preds = %54
  %61 = select i1 %.not45, ptr @maskedmax32, ptr @maskedmin32
  br label %.sink.split

.sink.split:                                      ; preds = %58, %60, %50
  %.sink = phi ptr [ %53, %50 ], [ %61, %60 ], [ %59, %58 ]
  store ptr %.sink, ptr %49, align 8, !tbaa !45
  br label %62

62:                                               ; preds = %.sink.split, %1
  %.0 = phi i32 [ %16, %1 ], [ 0, %.sink.split ]
  ret i32 %.0
}